; Function Attrs: mustprogress nounwind uwtable
define void @_ZN4LIEF2PE6ExportD2Ev(ptr noundef nonnull align 8 dereferenceable(80) %0) unnamed_addr #0 align 2 personality ptr @__gxx_personality_v0 {
  store ptr getelementptr inbounds ({ [7 x ptr] }, ptr @_ZTVN4LIEF2PE6ExportE, i64 0, i32 0, i64 2), ptr %0, align 8
  %2 = getelementptr inbounds i8, ptr %0, i64 48
  tail call void @_ZNSt7__cxx1112basic_stringIcSt11char_traitsIcESaIcEED1Ev(ptr noundef nonnull align 8 dereferenceable(32) %2) #10
  %3 = getelementptr inbounds i8, ptr %0, i64 24
  %4 = load ptr, ptr %3, align 8
  %5 = getelementptr inbounds i8, ptr %0, i64 32
  %6 = load ptr, ptr %5, align 8
  %.not4.i.i.i.i = icmp eq ptr %4, %6
  br i1 %.not4.i.i.i.i, label %_ZSt8_DestroyIPN4LIEF2PE11ExportEntryES2_EvT_S4_RSaIT0_E.exit.i, label %.lr.ph.i.i.i.i

.lr.ph.i.i.i.i:                                   ; preds = %1, %.lr.ph.i.i.i.i
  %.05.i.i.i.i = phi ptr [ %10, %.lr.ph.i.i.i.i ], [ %4, %1 ]
  %7 = load ptr, ptr %.05.i.i.i.i, align 8
  %8 = getelementptr inbounds i8, ptr %7, i64 16
  %9 = load ptr, ptr %8, align 8
  tail call void %9(ptr noundef nonnull align 8 dereferenceable(136) %.05.i.i.i.i) #10
  %10 = getelementptr inbounds i8, ptr %.05.i.i.i.i, i64 136
  %.not.i.i.i.i = icmp eq ptr %10, %6
  br i1 %.not.i.i.i.i, label %_ZSt8_DestroyIPN4LIEF2PE11ExportEntryES2_EvT_S4_RSaIT0_E.exitthread-pre-split.i, label %.lr.ph.i.i.i.i, !llvm.loop !4

_ZSt8_DestroyIPN4LIEF2PE11ExportEntryES2_EvT_S4_RSaIT0_E.exitthread-pre-split.i: ; preds = %.lr.ph.i.i.i.i
  %.pr.i = load ptr, ptr %3, align 8
  br label %_ZSt8_DestroyIPN4LIEF2PE11ExportEntryES2_EvT_S4_RSaIT0_E.exit.i

_ZSt8_DestroyIPN4LIEF2PE11ExportEntryES2_EvT_S4_RSaIT0_E.exit.i: ; preds = %_ZSt8_DestroyIPN4LIEF2PE11ExportEntryES2_EvT_S4_RSaIT0_E.exitthread-pre-split.i, %1
  %11 = phi ptr [ %.pr.i, %_ZSt8_DestroyIPN4LIEF2PE11ExportEntryES2_EvT_S4_RSaIT0_E.exitthread-pre-split.i ], [ %4, %1 ]
  %.not.i.i.i = icmp eq ptr %11, null
  br i1 %.not.i.i.i, label %_ZNSt6vectorIN4LIEF2PE11ExportEntryESaIS2_EED2Ev.exit, label %12

12:                                               ; preds = %_ZSt8_DestroyIPN4LIEF2PE11ExportEntryES2_EvT_S4_RSaIT0_E.exit.i
  tail call void @_ZdlPv(ptr noundef nonnull %11) #11
  br label %_ZNSt6vectorIN4LIEF2PE11ExportEntryESaIS2_EED2Ev.exit

_ZNSt6vectorIN4LIEF2PE11ExportEntryESaIS2_EED2Ev.exit: ; preds = %_ZSt8_DestroyIPN4LIEF2PE11ExportEntryES2_EvT_S4_RSaIT0_E.exit.i, %12
  tail call void @_ZN4LIEF6ObjectD2Ev(ptr noundef nonnull align 8 dereferenceable(8) %0) #10
  ret void
}